; Function Attrs: nounwind uwtable
define internal void @run_legacy_unscaled(ptr noundef %0, ptr noundef readonly captures(none) %1, i32 noundef %2, i32 noundef %3, ptr noundef readonly captures(none) %4) #0 {
  %6 = alloca %struct.SwsImg, align 8
  %7 = getelementptr inbounds nuw i8, ptr %4, i64 120
  %8 = load ptr, ptr %7, align 8, !tbaa !15
  %9 = getelementptr inbounds nuw i8, ptr %4, i64 32
  %10 = load i32, ptr %9, align 8, !tbaa !21
  %11 = icmp eq i32 %10, 1
  br i1 %11, label %slice_ctx.exit, label %12

12:                                               ; preds = %5
  %13 = getelementptr inbounds nuw i8, ptr %8, i64 128
  %14 = load ptr, ptr %13, align 16, !tbaa !142
  %15 = getelementptr inbounds nuw i8, ptr %4, i64 28
  %16 = load i32, ptr %15, align 4, !tbaa !22
  %17 = sdiv i32 %2, %16
  %18 = sext i32 %17 to i64
  %19 = getelementptr inbounds ptr, ptr %14, i64 %18
  %20 = load ptr, ptr %19, align 8, !tbaa !94
  %21 = getelementptr inbounds nuw i8, ptr %20, i64 72
  %22 = load i32, ptr %21, align 8, !tbaa !97
  switch i32 %22, label %slice_ctx.exit [
    i32 11, label %usePal.exit.i
    i32 19, label %usePal.exit.i
    i32 17, label %usePal.exit.i
    i32 8, label %usePal.exit.i
    i32 22, label %usePal.exit.i
    i32 20, label %usePal.exit.i
  ]

usePal.exit.i:                                    ; preds = %12, %12, %12, %12, %12, %12
  %23 = getelementptr inbounds nuw i8, ptr %20, i64 480
  %24 = getelementptr inbounds nuw i8, ptr %8, i64 480
  tail call void @llvm.memcpy.p0.p0.i64(ptr noundef nonnull align 16 dereferenceable(1024) %23, ptr noundef nonnull align 16 dereferenceable(1024) %24, i64 1024, i1 false)
  %25 = getelementptr inbounds nuw i8, ptr %20, i64 1504
  %26 = getelementptr inbounds nuw i8, ptr %8, i64 1504
  tail call void @llvm.memcpy.p0.p0.i64(ptr noundef nonnull align 16 dereferenceable(1024) %25, ptr noundef nonnull align 16 dereferenceable(1024) %26, i64 1024, i1 false)
  br label %slice_ctx.exit

slice_ctx.exit:                                   ; preds = %5, %12, %usePal.exit.i
  %.0.i = phi ptr [ %8, %5 ], [ %20, %usePal.exit.i ], [ %20, %12 ]
  call void @llvm.lifetime.start.p0(i64 56, ptr nonnull %6) #12
  tail call void @llvm.experimental.noalias.scope.decl(metadata !152)
  call void @llvm.memcpy.p0.p0.i64(ptr noundef nonnull align 8 dereferenceable(56) %6, ptr noundef nonnull readonly align 8 dereferenceable(56) %1, i64 56, i1 false), !tbaa.struct !113
  %27 = getelementptr inbounds nuw i8, ptr %6, i64 8
  %28 = getelementptr inbounds nuw i8, ptr %6, i64 40
  %29 = load i32, ptr %6, align 8
  br label %30

30:                                               ; preds = %ff_fmt_vshift.exit.i, %slice_ctx.exit
  %indvars.iv.i = phi i64 [ 0, %slice_ctx.exit ], [ %indvars.iv.next.i, %ff_fmt_vshift.exit.i ]
  %31 = getelementptr inbounds nuw [4 x ptr], ptr %27, i64 0, i64 %indvars.iv.i
  %32 = load ptr, ptr %31, align 8, !tbaa !75, !alias.scope !152
  %.not.i = icmp eq ptr %32, null
  br i1 %.not.i, label %ff_sws_img_shift.exit, label %33

33:                                               ; preds = %30
  %34 = tail call ptr @av_pix_fmt_desc_get(i32 noundef %29) #12, !noalias !152
  %35 = trunc i64 %indvars.iv.i to i32
  %36 = add i32 %35, -1
  %or.cond.i.i = icmp ult i32 %36, 2
  br i1 %or.cond.i.i, label %37, label %ff_fmt_vshift.exit.i

37:                                               ; preds = %33
  %38 = getelementptr inbounds nuw i8, ptr %34, i64 10
  %39 = load i8, ptr %38, align 2, !tbaa !105, !noalias !152
  %40 = zext i8 %39 to i32
  br label %ff_fmt_vshift.exit.i

ff_fmt_vshift.exit.i:                             ; preds = %37, %33
  %41 = phi i32 [ %40, %37 ], [ 0, %33 ]
  %42 = ashr i32 %2, %41
  %43 = getelementptr inbounds nuw [4 x i32], ptr %28, i64 0, i64 %indvars.iv.i
  %44 = load i32, ptr %43, align 4, !tbaa !42, !alias.scope !152
  %45 = mul nsw i32 %42, %44
  %46 = sext i32 %45 to i64
  %47 = getelementptr inbounds i8, ptr %32, i64 %46
  store ptr %47, ptr %31, align 8, !tbaa !75, !alias.scope !152
  %indvars.iv.next.i = add nuw nsw i64 %indvars.iv.i, 1
  %exitcond.not.i = icmp eq i64 %indvars.iv.next.i, 4
  br i1 %exitcond.not.i, label %ff_sws_img_shift.exit, label %30, !llvm.loop !114

ff_sws_img_shift.exit:                            ; preds = %30, %ff_fmt_vshift.exit.i
  %48 = getelementptr inbounds nuw i8, ptr %.0.i, i64 176
  %49 = load ptr, ptr %48, align 16, !tbaa !137
  %50 = getelementptr inbounds nuw i8, ptr %0, i64 8
  %51 = getelementptr inbounds nuw i8, ptr %0, i64 40
  %52 = call i32 %49(ptr noundef %.0.i, ptr noundef nonnull %27, ptr noundef nonnull %28, i32 noundef %2, i32 noundef %3, ptr noundef nonnull %50, ptr noundef nonnull %51) #12
  call void @llvm.lifetime.end.p0(i64 56, ptr nonnull %6) #12
  ret void
}